target datalayout = "e-m:e-p270:32:32-p271:32:32-p272:64:64-i64:64-i128:128-f80:128-n8:16:32:64-S128"
target triple = "x86_64-pc-linux-gnu"

%struct.PHP_TIGER_CTX = type { [3 x i64], i64, [64 x i8], i32, i8 }

; Function Attrs: nounwind uwtable
define dso_local void @PHP_4TIGERInit(ptr noundef %0, ptr noundef %1) #0 {
  %3 = alloca ptr, align 8
  %4 = alloca ptr, align 8
  store ptr %0, ptr %3, align 8, !tbaa !4
  store ptr %1, ptr %4, align 8, !tbaa !8
  %5 = load ptr, ptr %3, align 8, !tbaa !4
  call void @llvm.memset.p0.i64(ptr align 8 %5, i8 0, i64 104, i1 false)
  %6 = load ptr, ptr %3, align 8, !tbaa !4
  %7 = getelementptr inbounds nuw %struct.PHP_TIGER_CTX, ptr %6, i32 0, i32 4
  %8 = load i8, ptr %7, align 4
  %9 = and i8 %8, -2
  %10 = or i8 %9, 1
  store i8 %10, ptr %7, align 4
  %11 = load ptr, ptr %3, align 8, !tbaa !4
  %12 = getelementptr inbounds nuw %struct.PHP_TIGER_CTX, ptr %11, i32 0, i32 0
  %13 = getelementptr inbounds [3 x i64], ptr %12, i64 0, i64 0
  store i64 81985529216486895, ptr %13, align 8, !tbaa !10
  %14 = load ptr, ptr %3, align 8, !tbaa !4
  %15 = getelementptr inbounds nuw %struct.PHP_TIGER_CTX, ptr %14, i32 0, i32 0
  %16 = getelementptr inbounds [3 x i64], ptr %15, i64 0, i64 1
  store i64 -81985529216486896, ptr %16, align 8, !tbaa !10
  %17 = load ptr, ptr %3, align 8, !tbaa !4
  %18 = getelementptr inbounds nuw %struct.PHP_TIGER_CTX, ptr %17, i32 0, i32 0
  %19 = getelementptr inbounds [3 x i64], ptr %18, i64 0, i64 2
  store i64 -1110518062304271993, ptr %19, align 8, !tbaa !10
  ret void
}