; Function Attrs: mustprogress nofree norecurse nosync nounwind willreturn memory(argmem: write) uwtable
define dso_local void @PHP_4TIGERInit(ptr noundef writeonly captures(none) initializes((0, 104)) %0, ptr readnone captures(none) %1) #0 {
  %3 = getelementptr inbounds nuw i8, ptr %0, i64 24
  tail call void @llvm.memset.p0.i64(ptr noundef nonnull align 8 dereferenceable(104) %3, i8 0, i64 80, i1 false)
  %4 = getelementptr inbounds nuw i8, ptr %0, i64 100
  store i8 1, ptr %4, align 4
  store i64 81985529216486895, ptr %0, align 8, !tbaa !4
  %5 = getelementptr inbounds nuw i8, ptr %0, i64 8
  store i64 -81985529216486896, ptr %5, align 8, !tbaa !4
  %6 = getelementptr inbounds nuw i8, ptr %0, i64 16
  store i64 -1110518062304271993, ptr %6, align 8, !tbaa !4
  ret void
}